target datalayout = "e-m:e-p270:32:32-p271:32:32-p272:64:64-i64:64-i128:128-f80:128-n8:16:32:64-S128"
target triple = "x86_64-pc-linux-gnu"

; Function Attrs: nounwind uwtable
define internal void @inv_predict_9(ptr noundef %0, ptr noundef %1, ptr noundef %2, ptr noundef %3, ptr noundef %4) #1 {
  %6 = alloca ptr, align 8
  %7 = alloca ptr, align 8
  %8 = alloca ptr, align 8
  %9 = alloca ptr, align 8
  %10 = alloca ptr, align 8
  store ptr %0, ptr %6, align 8, !tbaa !82
  store ptr %1, ptr %7, align 8, !tbaa !82
  store ptr %2, ptr %8, align 8, !tbaa !82
  store ptr %3, ptr %9, align 8, !tbaa !82
  store ptr %4, ptr %10, align 8, !tbaa !82
  %11 = load ptr, ptr %9, align 8, !tbaa !82
  %12 = getelementptr inbounds i8, ptr %11, i64 0
  %13 = load i8, ptr %12, align 1, !tbaa !76
  %14 = zext i8 %13 to i32
  %15 = load ptr, ptr %10, align 8, !tbaa !82
  %16 = getelementptr inbounds i8, ptr %15, i64 0
  %17 = load i8, ptr %16, align 1, !tbaa !76
  %18 = zext i8 %17 to i32
  %19 = add nsw i32 %14, %18
  %20 = ashr i32 %19, 1
  %21 = trunc i32 %20 to i8
  %22 = load ptr, ptr %6, align 8, !tbaa !82
  %23 = getelementptr inbounds i8, ptr %22, i64 0
  store i8 %21, ptr %23, align 1, !tbaa !76
  %24 = load ptr, ptr %9, align 8, !tbaa !82
  %25 = getelementptr inbounds i8, ptr %24, i64 1
  %26 = load i8, ptr %25, align 1, !tbaa !76
  %27 = zext i8 %26 to i32
  %28 = load ptr, ptr %10, align 8, !tbaa !82
  %29 = getelementptr inbounds i8, ptr %28, i64 1
  %30 = load i8, ptr %29, align 1, !tbaa !76
  %31 = zext i8 %30 to i32
  %32 = add nsw i32 %27, %31
  %33 = ashr i32 %32, 1
  %34 = trunc i32 %33 to i8
  %35 = load ptr, ptr %6, align 8, !tbaa !82
  %36 = getelementptr inbounds i8, ptr %35, i64 1
  store i8 %34, ptr %36, align 1, !tbaa !76
  %37 = load ptr, ptr %9, align 8, !tbaa !82
  %38 = getelementptr inbounds i8, ptr %37, i64 2
  %39 = load i8, ptr %38, align 1, !tbaa !76
  %40 = zext i8 %39 to i32
  %41 = load ptr, ptr %10, align 8, !tbaa !82
  %42 = getelementptr inbounds i8, ptr %41, i64 2
  %43 = load i8, ptr %42, align 1, !tbaa !76
  %44 = zext i8 %43 to i32
  %45 = add nsw i32 %40, %44
  %46 = ashr i32 %45, 1
  %47 = trunc i32 %46 to i8
  %48 = load ptr, ptr %6, align 8, !tbaa !82
  %49 = getelementptr inbounds i8, ptr %48, i64 2
  store i8 %47, ptr %49, align 1, !tbaa !76
  %50 = load ptr, ptr %9, align 8, !tbaa !82
  %51 = getelementptr inbounds i8, ptr %50, i64 3
  %52 = load i8, ptr %51, align 1, !tbaa !76
  %53 = zext i8 %52 to i32
  %54 = load ptr, ptr %10, align 8, !tbaa !82
  %55 = getelementptr inbounds i8, ptr %54, i64 3
  %56 = load i8, ptr %55, align 1, !tbaa !76
  %57 = zext i8 %56 to i32
  %58 = add nsw i32 %53, %57
  %59 = ashr i32 %58, 1
  %60 = trunc i32 %59 to i8
  %61 = load ptr, ptr %6, align 8, !tbaa !82
  %62 = getelementptr inbounds i8, ptr %61, i64 3
  store i8 %60, ptr %62, align 1, !tbaa !76
  ret void
}