; Function Attrs: mustprogress nofree norecurse nosync nounwind willreturn memory(argmem: readwrite) uwtable
define internal void @inv_predict_9(ptr noundef writeonly captures(none) initializes((0, 4)) %0, ptr readnone captures(none) %1, ptr readnone captures(none) %2, ptr noundef readonly captures(none) %3, ptr noundef readonly captures(none) %4) #7 {
  %6 = load i8, ptr %3, align 1, !tbaa !59
  %7 = zext i8 %6 to i16
  %8 = load i8, ptr %4, align 1, !tbaa !59
  %9 = zext i8 %8 to i16
  %10 = add nuw nsw i16 %9, %7
  %11 = lshr i16 %10, 1
  %12 = trunc nuw i16 %11 to i8
  store i8 %12, ptr %0, align 1, !tbaa !59
  %13 = getelementptr inbounds nuw i8, ptr %3, i64 1
  %14 = load i8, ptr %13, align 1, !tbaa !59
  %15 = zext i8 %14 to i16
  %16 = getelementptr inbounds nuw i8, ptr %4, i64 1
  %17 = load i8, ptr %16, align 1, !tbaa !59
  %18 = zext i8 %17 to i16
  %19 = add nuw nsw i16 %18, %15
  %20 = lshr i16 %19, 1
  %21 = trunc nuw i16 %20 to i8
  %22 = getelementptr inbounds nuw i8, ptr %0, i64 1
  store i8 %21, ptr %22, align 1, !tbaa !59
  %23 = getelementptr inbounds nuw i8, ptr %3, i64 2
  %24 = load i8, ptr %23, align 1, !tbaa !59
  %25 = zext i8 %24 to i16
  %26 = getelementptr inbounds nuw i8, ptr %4, i64 2
  %27 = load i8, ptr %26, align 1, !tbaa !59
  %28 = zext i8 %27 to i16
  %29 = add nuw nsw i16 %28, %25
  %30 = lshr i16 %29, 1
  %31 = trunc nuw i16 %30 to i8
  %32 = getelementptr inbounds nuw i8, ptr %0, i64 2
  store i8 %31, ptr %32, align 1, !tbaa !59
  %33 = getelementptr inbounds nuw i8, ptr %3, i64 3
  %34 = load i8, ptr %33, align 1, !tbaa !59
  %35 = zext i8 %34 to i16
  %36 = getelementptr inbounds nuw i8, ptr %4, i64 3
  %37 = load i8, ptr %36, align 1, !tbaa !59
  %38 = zext i8 %37 to i16
  %39 = add nuw nsw i16 %38, %35
  %40 = lshr i16 %39, 1
  %41 = trunc nuw i16 %40 to i8
  %42 = getelementptr inbounds nuw i8, ptr %0, i64 3
  store i8 %41, ptr %42, align 1, !tbaa !59
  ret void
}